target datalayout = "e-m:e-p270:32:32-p271:32:32-p272:64:64-i64:64-i128:128-f80:128-n8:16:32:64-S128"
target triple = "x86_64-pc-linux-gnu"

%struct.Vec_Int_t_ = type { i32, i32, ptr }
%struct.Vec_Mem_t_ = type { i32, i32, i32, i32, i32, i32, ptr, ptr, ptr }

@.str.6 = private unnamed_addr constant [3 x i8] c"wb\00", align 1
@.str.23 = private unnamed_addr constant [16 x i8] c"func%d_min%d.tt\00", align 1
@.str.24 = private unnamed_addr constant [6 x i8] c"%04x\0A\00", align 1
@.str.25 = private unnamed_addr constant [6 x i8] c"%08x\0A\00", align 1
@.str.26 = private unnamed_addr constant [51 x i8] c"Dumped %8d  %d-node %d-input functions into file.\0A\00", align 1

; Function Attrs: inlinehint nounwind uwtable
define internal i32 @Vec_IntEntry(ptr noundef %0, i32 noundef %1) #4 {
  %3 = alloca ptr, align 8
  %4 = alloca i32, align 4
  store ptr %0, ptr %3, align 8, !tbaa !14
  store i32 %1, ptr %4, align 4, !tbaa !3
  %5 = load ptr, ptr %3, align 8, !tbaa !14
  %6 = getelementptr inbounds nuw %struct.Vec_Int_t_, ptr %5, i32 0, i32 2
  %7 = load ptr, ptr %6, align 8, !tbaa !25
  %8 = load i32, ptr %4, align 4, !tbaa !3
  %9 = sext i32 %8 to i64
  %10 = getelementptr inbounds i32, ptr %7, i64 %9
  %11 = load i32, ptr %10, align 4, !tbaa !3
  ret i32 %11
}

; Function Attrs: inlinehint nounwind uwtable
define internal ptr @Vec_MemReadEntry(ptr noundef %0, i32 noundef %1) #4 {
  %3 = alloca ptr, align 8
  %4 = alloca i32, align 4
  store ptr %0, ptr %3, align 8, !tbaa !53
  store i32 %1, ptr %4, align 4, !tbaa !3
  %5 = load ptr, ptr %3, align 8, !tbaa !53
  %6 = getelementptr inbounds nuw %struct.Vec_Mem_t_, ptr %5, i32 0, i32 6
  %7 = load ptr, ptr %6, align 8, !tbaa !62
  %8 = load i32, ptr %4, align 4, !tbaa !3
  %9 = load ptr, ptr %3, align 8, !tbaa !53
  %10 = getelementptr inbounds nuw %struct.Vec_Mem_t_, ptr %9, i32 0, i32 2
  %11 = load i32, ptr %10, align 8, !tbaa !65
  %12 = ashr i32 %8, %11
  %13 = sext i32 %12 to i64
  %14 = getelementptr inbounds ptr, ptr %7, i64 %13
  %15 = load ptr, ptr %14, align 8, !tbaa !12
  %16 = load ptr, ptr %3, align 8, !tbaa !53
  %17 = getelementptr inbounds nuw %struct.Vec_Mem_t_, ptr %16, i32 0, i32 0
  %18 = load i32, ptr %17, align 8, !tbaa !66
  %19 = load i32, ptr %4, align 4, !tbaa !3
  %20 = load ptr, ptr %3, align 8, !tbaa !53
  %21 = getelementptr inbounds nuw %struct.Vec_Mem_t_, ptr %20, i32 0, i32 3
  %22 = load i32, ptr %21, align 4, !tbaa !67
  %23 = and i32 %19, %22
  %24 = mul nsw i32 %18, %23
  %25 = sext i32 %24 to i64
  %26 = getelementptr inbounds i64, ptr %15, i64 %25
  ret ptr %26
}

; Function Attrs: inlinehint nounwind uwtable
define internal i32 @Vec_MemEntryNum(ptr noundef %0) #4 {
  %2 = alloca ptr, align 8
  store ptr %0, ptr %2, align 8, !tbaa !53
  %3 = load ptr, ptr %2, align 8, !tbaa !53
  %4 = getelementptr inbounds nuw %struct.Vec_Mem_t_, ptr %3, i32 0, i32 1
  %5 = load i32, ptr %4, align 4, !tbaa !73
  ret i32 %5
}

; Function Attrs: nounwind uwtable
define void @Dau_DumpFuncs(ptr noundef %0, ptr noundef %1, i32 noundef %2, i32 noundef %3) #0 {
  %5 = alloca ptr, align 8
  %6 = alloca ptr, align 8
  %7 = alloca i32, align 4
  %8 = alloca i32, align 4
  %9 = alloca [20 x ptr], align 16
  %10 = alloca [20 x i32], align 16
  %11 = alloca i32, align 4
  %12 = alloca i32, align 4
  %13 = alloca [100 x i8], align 16
  %14 = alloca ptr, align 8
  %15 = alloca i32, align 4
  %16 = alloca i32, align 4
  store ptr %0, ptr %5, align 8, !tbaa !53
  store ptr %1, ptr %6, align 8, !tbaa !14
  store i32 %2, ptr %7, align 4, !tbaa !3
  store i32 %3, ptr %8, align 4, !tbaa !3
  call void @llvm.lifetime.start.p0(i64 160, ptr %9) #12
  call void @llvm.lifetime.start.p0(i64 80, ptr %10) #12
  call void @llvm.memset.p0.i64(ptr align 16 %10, i8 0, i64 80, i1 false)
  call void @llvm.lifetime.start.p0(i64 4, ptr %11) #12
  call void @llvm.lifetime.start.p0(i64 4, ptr %12) #12
  store i32 0, ptr %11, align 4, !tbaa !3
  br label %17

17:                                               ; preds = %31, %4
  %18 = load i32, ptr %11, align 4, !tbaa !3
  %19 = load i32, ptr %8, align 4, !tbaa !3
  %20 = icmp sle i32 %18, %19
  br i1 %20, label %21, label %34

21:                                               ; preds = %17
  call void @llvm.lifetime.start.p0(i64 100, ptr %13) #12
  %22 = getelementptr inbounds [100 x i8], ptr %13, i64 0, i64 0
  %23 = load i32, ptr %7, align 4, !tbaa !3
  %24 = load i32, ptr %11, align 4, !tbaa !3
  %25 = call i32 (ptr, ptr, ...) @sprintf(ptr noundef %22, ptr noundef @.str.23, i32 noundef %23, i32 noundef %24) #12
  %26 = getelementptr inbounds [100 x i8], ptr %13, i64 0, i64 0
  %27 = call noalias ptr @fopen(ptr noundef %26, ptr noundef @.str.6)
  %28 = load i32, ptr %11, align 4, !tbaa !3
  %29 = sext i32 %28 to i64
  %30 = getelementptr inbounds [20 x ptr], ptr %9, i64 0, i64 %29
  store ptr %27, ptr %30, align 8, !tbaa !16
  call void @llvm.lifetime.end.p0(i64 100, ptr %13) #12
  br label %31

31:                                               ; preds = %21
  %32 = load i32, ptr %11, align 4, !tbaa !3
  %33 = add nsw i32 %32, 1
  store i32 %33, ptr %11, align 4, !tbaa !3
  br label %17, !llvm.loop !77

34:                                               ; preds = %17
  store i32 0, ptr %12, align 4, !tbaa !3
  br label %35

35:                                               ; preds = %93, %34
  %36 = load i32, ptr %12, align 4, !tbaa !3
  %37 = load ptr, ptr %5, align 8, !tbaa !53
  %38 = call i32 @Vec_MemEntryNum(ptr noundef %37)
  %39 = icmp slt i32 %36, %38
  br i1 %39, label %40, label %96

40:                                               ; preds = %35
  call void @llvm.lifetime.start.p0(i64 8, ptr %14) #12
  %41 = load ptr, ptr %5, align 8, !tbaa !53
  %42 = load i32, ptr %12, align 4, !tbaa !3
  %43 = call ptr @Vec_MemReadEntry(ptr noundef %41, i32 noundef %42)
  store ptr %43, ptr %14, align 8, !tbaa !12
  call void @llvm.lifetime.start.p0(i64 4, ptr %15) #12
  %44 = load ptr, ptr %6, align 8, !tbaa !14
  %45 = load i32, ptr %12, align 4, !tbaa !3
  %46 = call i32 @Vec_IntEntry(ptr noundef %44, i32 noundef %45)
  store i32 %46, ptr %15, align 4, !tbaa !3
  %47 = load i32, ptr %15, align 4, !tbaa !3
  %48 = and i32 %47, 15
  %49 = load i32, ptr %7, align 4, !tbaa !3
  %50 = icmp ne i32 %48, %49
  br i1 %50, label %51, label %52

51:                                               ; preds = %40
  store i32 7, ptr %16, align 4
  br label %90

52:                                               ; preds = %40
  %53 = load i32, ptr %15, align 4, !tbaa !3
  %54 = ashr i32 %53, 16
  %55 = sext i32 %54 to i64
  %56 = getelementptr inbounds [20 x i32], ptr %10, i64 0, i64 %55
  %57 = load i32, ptr %56, align 4, !tbaa !3
  %58 = add nsw i32 %57, 1
  store i32 %58, ptr %56, align 4, !tbaa !3
  %59 = load i32, ptr %7, align 4, !tbaa !3
  %60 = icmp eq i32 %59, 4
  br i1 %60, label %61, label %73

61:                                               ; preds = %52
  %62 = load i32, ptr %15, align 4, !tbaa !3
  %63 = ashr i32 %62, 16
  %64 = sext i32 %63 to i64
  %65 = getelementptr inbounds [20 x ptr], ptr %9, i64 0, i64 %64
  %66 = load ptr, ptr %65, align 8, !tbaa !16
  %67 = load ptr, ptr %14, align 8, !tbaa !12
  %68 = getelementptr inbounds i64, ptr %67, i64 0
  %69 = load i64, ptr %68, align 8, !tbaa !7
  %70 = and i64 65535, %69
  %71 = trunc i64 %70 to i32
  %72 = call i32 (ptr, ptr, ...) @fprintf(ptr noundef %66, ptr noundef @.str.24, i32 noundef %71) #12
  br label %89

73:                                               ; preds = %52
  %74 = load i32, ptr %7, align 4, !tbaa !3
  %75 = icmp eq i32 %74, 5
  br i1 %75, label %76, label %88

76:                                               ; preds = %73
  %77 = load i32, ptr %15, align 4, !tbaa !3
  %78 = ashr i32 %77, 16
  %79 = sext i32 %78 to i64
  %80 = getelementptr inbounds [20 x ptr], ptr %9, i64 0, i64 %79
  %81 = load ptr, ptr %80, align 8, !tbaa !16
  %82 = load ptr, ptr %14, align 8, !tbaa !12
  %83 = getelementptr inbounds i64, ptr %82, i64 0
  %84 = load i64, ptr %83, align 8, !tbaa !7
  %85 = and i64 4294967295, %84
  %86 = trunc i64 %85 to i32
  %87 = call i32 (ptr, ptr, ...) @fprintf(ptr noundef %81, ptr noundef @.str.25, i32 noundef %86) #12
  br label %88

88:                                               ; preds = %76, %73
  br label %89

89:                                               ; preds = %88, %61
  store i32 0, ptr %16, align 4
  br label %90

90:                                               ; preds = %89, %51
  call void @llvm.lifetime.end.p0(i64 4, ptr %15) #12
  call void @llvm.lifetime.end.p0(i64 8, ptr %14) #12
  %91 = load i32, ptr %16, align 4
  switch i32 %91, label %118 [
    i32 0, label %92
    i32 7, label %93
  ]

92:                                               ; preds = %90
  br label %93

93:                                               ; preds = %92, %90
  %94 = load i32, ptr %12, align 4, !tbaa !3
  %95 = add nsw i32 %94, 1
  store i32 %95, ptr %12, align 4, !tbaa !3
  br label %35, !llvm.loop !78

96:                                               ; preds = %35
  store i32 0, ptr %11, align 4, !tbaa !3
  br label %97

97:                                               ; preds = %114, %96
  %98 = load i32, ptr %11, align 4, !tbaa !3
  %99 = load i32, ptr %8, align 4, !tbaa !3
  %100 = icmp sle i32 %98, %99
  br i1 %100, label %101, label %117

101:                                              ; preds = %97
  %102 = load i32, ptr %11, align 4, !tbaa !3
  %103 = sext i32 %102 to i64
  %104 = getelementptr inbounds [20 x i32], ptr %10, i64 0, i64 %103
  %105 = load i32, ptr %104, align 4, !tbaa !3
  %106 = load i32, ptr %11, align 4, !tbaa !3
  %107 = load i32, ptr %7, align 4, !tbaa !3
  %108 = call i32 (ptr, ...) @printf(ptr noundef @.str.26, i32 noundef %105, i32 noundef %106, i32 noundef %107)
  %109 = load i32, ptr %11, align 4, !tbaa !3
  %110 = sext i32 %109 to i64
  %111 = getelementptr inbounds [20 x ptr], ptr %9, i64 0, i64 %110
  %112 = load ptr, ptr %111, align 8, !tbaa !16
  %113 = call i32 @fclose(ptr noundef %112)
  br label %114

114:                                              ; preds = %101
  %115 = load i32, ptr %11, align 4, !tbaa !3
  %116 = add nsw i32 %115, 1
  store i32 %116, ptr %11, align 4, !tbaa !3
  br label %97, !llvm.loop !79

117:                                              ; preds = %97
  call void @llvm.lifetime.end.p0(i64 4, ptr %12) #12
  call void @llvm.lifetime.end.p0(i64 4, ptr %11) #12
  call void @llvm.lifetime.end.p0(i64 80, ptr %10) #12
  call void @llvm.lifetime.end.p0(i64 160, ptr %9) #12
  ret void

118:                                              ; preds = %90
  unreachable
}