; Function Attrs: nofree nounwind uwtable
define void @Dau_DumpFuncs(ptr noundef readonly captures(none) %0, ptr noundef readonly captures(none) %1, i32 noundef %2, i32 noundef %3) local_unnamed_addr #9 {
  %5 = alloca [20 x ptr], align 16
  %6 = alloca [20 x i32], align 16
  %7 = alloca [100 x i8], align 16
  call void @llvm.lifetime.start.p0(i64 160, ptr nonnull %5) #26
  call void @llvm.lifetime.start.p0(i64 80, ptr nonnull %6) #26
  call void @llvm.memset.p0.i64(ptr noundef nonnull align 16 dereferenceable(80) %6, i8 0, i64 80, i1 false)
  %.not35 = icmp slt i32 %3, 0
  br i1 %.not35, label %.preheader34, label %.lr.ph.preheader

.lr.ph.preheader:                                 ; preds = %4
  %8 = add nuw i32 %3, 1
  %wide.trip.count = zext i32 %8 to i64
  br label %.lr.ph

.preheader34:                                     ; preds = %.lr.ph, %4
  %9 = getelementptr i8, ptr %0, i64 4
  %.val3337 = load i32, ptr %9, align 4, !tbaa !75
  %10 = icmp sgt i32 %.val3337, 0
  br i1 %10, label %.lr.ph39, label %.preheader

.lr.ph39:                                         ; preds = %.preheader34
  %11 = getelementptr inbounds nuw i8, ptr %0, i64 24
  %12 = getelementptr inbounds nuw i8, ptr %0, i64 8
  %13 = getelementptr inbounds nuw i8, ptr %0, i64 12
  %14 = getelementptr i8, ptr %1, i64 8
  br label %20

.lr.ph:                                           ; preds = %.lr.ph.preheader, %.lr.ph
  %indvars.iv = phi i64 [ 0, %.lr.ph.preheader ], [ %indvars.iv.next, %.lr.ph ]
  call void @llvm.lifetime.start.p0(i64 100, ptr nonnull %7) #26
  %15 = trunc nuw nsw i64 %indvars.iv to i32
  %16 = call i32 (ptr, ptr, ...) @sprintf(ptr noundef nonnull dereferenceable(1) %7, ptr noundef nonnull dereferenceable(1) @.str.23, i32 noundef %2, i32 noundef %15) #26
  %17 = call noalias ptr @fopen(ptr noundef nonnull %7, ptr noundef nonnull @.str.6)
  %18 = getelementptr inbounds nuw [20 x ptr], ptr %5, i64 0, i64 %indvars.iv
  store ptr %17, ptr %18, align 8, !tbaa !16
  call void @llvm.lifetime.end.p0(i64 100, ptr nonnull %7) #26
  %indvars.iv.next = add nuw nsw i64 %indvars.iv, 1
  %exitcond.not = icmp eq i64 %indvars.iv.next, %wide.trip.count
  br i1 %exitcond.not, label %.preheader34, label %.lr.ph, !llvm.loop !86

.preheader:                                       ; preds = %56, %.preheader34
  br i1 %.not35, label %._crit_edge, label %.lr.ph42.preheader

.lr.ph42.preheader:                               ; preds = %.preheader
  %19 = add nuw i32 %3, 1
  %wide.trip.count50 = zext i32 %19 to i64
  br label %.lr.ph42

20:                                               ; preds = %.lr.ph39, %56
  %indvars.iv44 = phi i64 [ 0, %.lr.ph39 ], [ %indvars.iv.next45, %56 ]
  %21 = load ptr, ptr %11, align 8, !tbaa !61
  %22 = load i32, ptr %12, align 8, !tbaa !65
  %23 = trunc nuw nsw i64 %indvars.iv44 to i32
  %24 = lshr i32 %23, %22
  %25 = zext nneg i32 %24 to i64
  %26 = getelementptr inbounds nuw ptr, ptr %21, i64 %25
  %27 = load ptr, ptr %26, align 8, !tbaa !66
  %28 = load i32, ptr %0, align 8, !tbaa !67
  %29 = load i32, ptr %13, align 4, !tbaa !68
  %30 = and i32 %29, %23
  %31 = mul nsw i32 %30, %28
  %32 = sext i32 %31 to i64
  %33 = getelementptr inbounds i64, ptr %27, i64 %32
  %.val = load ptr, ptr %14, align 8, !tbaa !15
  %34 = getelementptr inbounds nuw i32, ptr %.val, i64 %indvars.iv44
  %35 = load i32, ptr %34, align 4, !tbaa !19
  %36 = and i32 %35, 15
  %.not32 = icmp eq i32 %36, %2
  br i1 %.not32, label %37, label %56

37:                                               ; preds = %20
  %38 = ashr i32 %35, 16
  %39 = sext i32 %38 to i64
  %40 = getelementptr inbounds [20 x i32], ptr %6, i64 0, i64 %39
  %41 = load i32, ptr %40, align 4, !tbaa !19
  %42 = add nsw i32 %41, 1
  store i32 %42, ptr %40, align 4, !tbaa !19
  switch i32 %2, label %56 [
    i32 4, label %43
    i32 5, label %50
  ]

43:                                               ; preds = %37
  %44 = getelementptr inbounds [20 x ptr], ptr %5, i64 0, i64 %39
  %45 = load ptr, ptr %44, align 8, !tbaa !16
  %46 = load i64, ptr %33, align 8, !tbaa !18
  %47 = trunc i64 %46 to i32
  %48 = and i32 %47, 65535
  %49 = tail call i32 (ptr, ptr, ...) @fprintf(ptr noundef %45, ptr noundef nonnull @.str.24, i32 noundef %48) #26
  br label %56

50:                                               ; preds = %37
  %51 = getelementptr inbounds [20 x ptr], ptr %5, i64 0, i64 %39
  %52 = load ptr, ptr %51, align 8, !tbaa !16
  %53 = load i64, ptr %33, align 8, !tbaa !18
  %54 = trunc i64 %53 to i32
  %55 = tail call i32 (ptr, ptr, ...) @fprintf(ptr noundef %52, ptr noundef nonnull @.str.25, i32 noundef %54) #26
  br label %56

56:                                               ; preds = %43, %50, %37, %20
  %indvars.iv.next45 = add nuw nsw i64 %indvars.iv44, 1
  %.val33 = load i32, ptr %9, align 4, !tbaa !75
  %57 = sext i32 %.val33 to i64
  %58 = icmp slt i64 %indvars.iv.next45, %57
  br i1 %58, label %20, label %.preheader, !llvm.loop !87

.lr.ph42:                                         ; preds = %.lr.ph42.preheader, %.lr.ph42
  %indvars.iv47 = phi i64 [ 0, %.lr.ph42.preheader ], [ %indvars.iv.next48, %.lr.ph42 ]
  %59 = getelementptr inbounds nuw [20 x i32], ptr %6, i64 0, i64 %indvars.iv47
  %60 = load i32, ptr %59, align 4, !tbaa !19
  %61 = trunc nuw nsw i64 %indvars.iv47 to i32
  %62 = tail call i32 (ptr, ...) @printf(ptr noundef nonnull dereferenceable(1) @.str.26, i32 noundef %60, i32 noundef %61, i32 noundef %2)
  %63 = getelementptr inbounds nuw [20 x ptr], ptr %5, i64 0, i64 %indvars.iv47
  %64 = load ptr, ptr %63, align 8, !tbaa !16
  %65 = tail call i32 @fclose(ptr noundef %64)
  %indvars.iv.next48 = add nuw nsw i64 %indvars.iv47, 1
  %exitcond51.not = icmp eq i64 %indvars.iv.next48, %wide.trip.count50
  br i1 %exitcond51.not, label %._crit_edge, label %.lr.ph42, !llvm.loop !88

._crit_edge:                                      ; preds = %.lr.ph42, %.preheader
  call void @llvm.lifetime.end.p0(i64 80, ptr nonnull %6) #26
  call void @llvm.lifetime.end.p0(i64 160, ptr nonnull %5) #26
  ret void
}